; Function Attrs: nounwind uwtable
define i32 @cli_bcapi_hashset_new(ptr nocapture noundef %0) local_unnamed_addr #1 {
  %2 = getelementptr inbounds i8, ptr %0, i64 1236
  %3 = load i32, ptr %2, align 4
  %4 = add i32 %3, 1
  %5 = getelementptr inbounds i8, ptr %0, i64 1248
  %6 = load ptr, ptr %5, align 8
  %7 = zext i32 %4 to i64
  %8 = mul nuw nsw i64 %7, 40
  %9 = tail call ptr @cli_max_realloc(ptr noundef %6, i64 noundef %8) #29
  %.not = icmp eq ptr %9, null
  br i1 %.not, label %10, label %13

10:                                               ; preds = %1
  %11 = getelementptr inbounds i8, ptr %0, i64 1312
  %12 = load ptr, ptr %11, align 8
  tail call void @cli_event_error_oom(ptr noundef %12, i32 noundef 0) #29
  br label %17

13:                                               ; preds = %1
  store ptr %9, ptr %5, align 8
  store i32 %4, ptr %2, align 4
  %14 = zext i32 %3 to i64
  %15 = getelementptr inbounds %struct.cli_hashset, ptr %9, i64 %14
  %16 = tail call i32 @cli_hashset_init(ptr noundef nonnull %15, i64 noundef 16, i8 noundef zeroext 80) #29
  br label %17

17:                                               ; preds = %13, %10
  %.0 = phi i32 [ %3, %13 ], [ -1, %10 ]
  ret i32 %.0
}